; Function Attrs: nounwind uwtable
define dso_local void @gistcostestimate(ptr noundef %0, ptr noundef readonly captures(none) %1, double noundef %2, ptr noundef writeonly captures(none) initializes((0, 8)) %3, ptr noundef writeonly captures(none) initializes((0, 8)) %4, ptr noundef writeonly captures(none) initializes((0, 8)) %5, ptr noundef writeonly captures(none) initializes((0, 8)) %6, ptr noundef writeonly captures(none) initializes((0, 8)) %7) local_unnamed_addr #0 {
  %9 = alloca %struct.GenericCosts, align 8
  %10 = getelementptr inbounds nuw i8, ptr %1, i64 80
  %11 = load ptr, ptr %10, align 8
  call void @llvm.lifetime.start.p0(i64 64, ptr nonnull %9) #12
  call void @llvm.memset.p0.i64(ptr noundef nonnull align 8 dereferenceable(64) %9, i8 0, i64 64, i1 false)
  call void @genericcostestimate(ptr noundef %0, ptr noundef %1, double noundef %2, ptr noundef nonnull %9)
  %12 = getelementptr inbounds nuw i8, ptr %11, i64 40
  %13 = load i32, ptr %12, align 8
  %14 = icmp slt i32 %13, 0
  br i1 %14, label %15, label %24

15:                                               ; preds = %8
  %16 = getelementptr inbounds nuw i8, ptr %11, i64 24
  %17 = load i32, ptr %16, align 8
  %18 = icmp ugt i32 %17, 1
  br i1 %18, label %19, label %.sink.split

19:                                               ; preds = %15
  %20 = uitofp i32 %17 to double
  %21 = tail call double @log(double noundef %20) #12
  %22 = fdiv double %21, 0x40126BB1BBB55516
  %23 = fptosi double %22 to i32
  br label %.sink.split

.sink.split:                                      ; preds = %15, %19
  %.sink = phi i32 [ %23, %19 ], [ 0, %15 ]
  store i32 %.sink, ptr %12, align 8
  br label %24

24:                                               ; preds = %.sink.split, %8
  %25 = phi i32 [ %13, %8 ], [ %.sink, %.sink.split ]
  %26 = getelementptr inbounds nuw i8, ptr %11, i64 32
  %27 = load double, ptr %26, align 8
  %28 = fcmp ogt double %27, 1.000000e+00
  %.pre = load double, ptr @cpu_operator_cost, align 8
  %.pre22 = load double, ptr %9, align 8
  br i1 %28, label %29, label %._crit_edge

._crit_edge:                                      ; preds = %24
  %.phi.trans.insert = getelementptr inbounds nuw i8, ptr %9, i64 56
  %.pre23 = load double, ptr %.phi.trans.insert, align 8
  %.phi.trans.insert24 = getelementptr inbounds nuw i8, ptr %9, i64 8
  %.pre25 = load double, ptr %.phi.trans.insert24, align 8
  br label %39

29:                                               ; preds = %24
  %30 = tail call double @llvm.log.f64(double %27)
  %31 = tail call double @llvm.ceil.f64(double %30)
  %32 = fmul double %31, %.pre
  %33 = fadd double %.pre22, %32
  %34 = getelementptr inbounds nuw i8, ptr %9, i64 56
  %35 = load double, ptr %34, align 8
  %36 = getelementptr inbounds nuw i8, ptr %9, i64 8
  %37 = load double, ptr %36, align 8
  %38 = tail call double @llvm.fmuladd.f64(double %35, double %32, double %37)
  br label %39

39:                                               ; preds = %._crit_edge, %29
  %40 = phi double [ %38, %29 ], [ %.pre25, %._crit_edge ]
  %41 = phi double [ %35, %29 ], [ %.pre23, %._crit_edge ]
  %42 = phi double [ %33, %29 ], [ %.pre22, %._crit_edge ]
  %43 = add i32 %25, 1
  %44 = sitofp i32 %43 to double
  %45 = fmul double %44, 5.000000e+01
  %46 = fmul double %.pre, %45
  %47 = fadd double %42, %46
  %48 = tail call double @llvm.fmuladd.f64(double %41, double %46, double %40)
  store double %47, ptr %3, align 8
  store double %48, ptr %4, align 8
  %49 = getelementptr inbounds nuw i8, ptr %9, i64 16
  %50 = load double, ptr %49, align 8
  store double %50, ptr %5, align 8
  %51 = getelementptr inbounds nuw i8, ptr %9, i64 24
  %52 = load double, ptr %51, align 8
  store double %52, ptr %6, align 8
  %53 = getelementptr inbounds nuw i8, ptr %9, i64 32
  %54 = load double, ptr %53, align 8
  store double %54, ptr %7, align 8
  call void @llvm.lifetime.end.p0(i64 64, ptr nonnull %9) #12
  ret void
}